target datalayout = "e-m:e-p270:32:32-p271:32:32-p272:64:64-i64:64-i128:128-f80:128-n8:16:32:64-S128"
target triple = "x86_64-unknown-linux-gnu"

%"class.std::_Function_base" = type { %"union.std::_Any_data", ptr }
%"union.std::_Any_data" = type { %"union.std::_Nocopy_types" }
%"union.std::_Nocopy_types" = type { { i64, i64 } }
%"class.std::function" = type { %"class.std::_Function_base", ptr }
%class.anon.22 = type { ptr, ptr, ptr, ptr }
%"class.rocksdb::Cache" = type { ptr, %"class.std::shared_ptr", %"class.std::function" }
%"class.std::shared_ptr" = type { %"class.std::__shared_ptr" }
%"class.std::__shared_ptr" = type { ptr, %"class.std::__shared_count" }
%"class.std::__shared_count" = type { ptr }
%"struct.rocksdb::LRUCacheOptions" = type <{ %"struct.rocksdb::ShardedCacheOptions.base", [4 x i8], double, double, i8, [7 x i8] }>
%"struct.rocksdb::ShardedCacheOptions.base" = type <{ ptr, i64, i32, i8, [3 x i8], %"class.std::shared_ptr", i32, [4 x i8], %"class.std::shared_ptr.17", i32 }>
%"class.std::shared_ptr.17" = type { %"class.std::__shared_ptr.18" }
%"class.std::__shared_ptr.18" = type { ptr, %"class.std::__shared_count" }
%"struct.rocksdb::ShardedCacheOptions" = type <{ ptr, i64, i32, i8, [3 x i8], %"class.std::shared_ptr", i32, [4 x i8], %"class.std::shared_ptr.17", i32, [4 x i8] }>

; Function Attrs: mustprogress uwtable
define internal void @"_ZZN7rocksdb9lru_cache8LRUCacheC1ERKNS_15LRUCacheOptionsEENK3$_0clEPNS0_13LRUCacheShardE"(ptr noundef nonnull align 8 dereferenceable(32) %this, ptr noundef %cs) #0 align 2 {
entry:
  %this.addr = alloca ptr, align 8
  %cs.addr = alloca ptr, align 8
  store ptr %this, ptr %this.addr, align 8
  store ptr %cs, ptr %cs.addr, align 8
  %this1 = load ptr, ptr %this.addr, align 8
  %0 = getelementptr inbounds %class.anon.22, ptr %this1, i32 0, i32 3
  %1 = load ptr, ptr %0, align 8
  %2 = load ptr, ptr %cs.addr, align 8
  %3 = getelementptr inbounds %class.anon.22, ptr %this1, i32 0, i32 0
  %4 = load ptr, ptr %3, align 8
  %5 = load i64, ptr %4, align 8
  %6 = getelementptr inbounds %class.anon.22, ptr %this1, i32 0, i32 1
  %7 = load ptr, ptr %6, align 8
  %strict_capacity_limit = getelementptr inbounds %"struct.rocksdb::ShardedCacheOptions", ptr %7, i32 0, i32 3
  %8 = load i8, ptr %strict_capacity_limit, align 4
  %tobool = trunc i8 %8 to i1
  %9 = getelementptr inbounds %class.anon.22, ptr %this1, i32 0, i32 1
  %10 = load ptr, ptr %9, align 8
  %high_pri_pool_ratio = getelementptr inbounds %"struct.rocksdb::LRUCacheOptions", ptr %10, i32 0, i32 2
  %11 = load double, ptr %high_pri_pool_ratio, align 8
  %12 = getelementptr inbounds %class.anon.22, ptr %this1, i32 0, i32 1
  %13 = load ptr, ptr %12, align 8
  %low_pri_pool_ratio = getelementptr inbounds %"struct.rocksdb::LRUCacheOptions", ptr %13, i32 0, i32 3
  %14 = load double, ptr %low_pri_pool_ratio, align 8
  %15 = getelementptr inbounds %class.anon.22, ptr %this1, i32 0, i32 1
  %16 = load ptr, ptr %15, align 8
  %use_adaptive_mutex = getelementptr inbounds %"struct.rocksdb::LRUCacheOptions", ptr %16, i32 0, i32 4
  %17 = load i8, ptr %use_adaptive_mutex, align 8
  %tobool2 = trunc i8 %17 to i1
  %18 = getelementptr inbounds %class.anon.22, ptr %this1, i32 0, i32 1
  %19 = load ptr, ptr %18, align 8
  %metadata_charge_policy = getelementptr inbounds %"struct.rocksdb::ShardedCacheOptions", ptr %19, i32 0, i32 6
  %20 = load i32, ptr %metadata_charge_policy, align 8
  %21 = getelementptr inbounds %class.anon.22, ptr %this1, i32 0, i32 1
  %22 = load ptr, ptr %21, align 8
  %num_shard_bits = getelementptr inbounds %"struct.rocksdb::ShardedCacheOptions", ptr %22, i32 0, i32 2
  %23 = load i32, ptr %num_shard_bits, align 8
  %sub = sub nsw i32 32, %23
  %24 = getelementptr inbounds %class.anon.22, ptr %this1, i32 0, i32 2
  %25 = load ptr, ptr %24, align 8
  %26 = load ptr, ptr %25, align 8
  %eviction_callback_ = getelementptr inbounds %"class.rocksdb::Cache", ptr %1, i32 0, i32 2
  call void @_ZN7rocksdb9lru_cache13LRUCacheShardC1EmbddbNS_25CacheMetadataChargePolicyEiPNS_15MemoryAllocatorEPKSt8functionIFbRKNS_5SliceEPNS_5Cache6HandleEbEE(ptr noundef nonnull align 64 dereferenceable(256) %2, i64 noundef %5, i1 noundef zeroext %tobool, double noundef %11, double noundef %14, i1 noundef zeroext %tobool2, i32 noundef %20, i32 noundef %sub, ptr noundef %26, ptr noundef %eviction_callback_)
  ret void
}

; Function Attrs: mustprogress nounwind uwtable
define linkonce_odr noundef ptr @_ZNKSt9_Any_data9_M_accessEv(ptr noundef nonnull align 8 dereferenceable(16) %this) #4 comdat align 2 {
entry:
  %this.addr = alloca ptr, align 8
  store ptr %this, ptr %this.addr, align 8
  %this1 = load ptr, ptr %this.addr, align 8
  %arrayidx = getelementptr inbounds [16 x i8], ptr %this1, i64 0, i64 0
  ret ptr %arrayidx
}

; Function Attrs: mustprogress uwtable
define internal void @"_ZSt13__invoke_implIvRZN7rocksdb9lru_cache8LRUCacheC1ERKNS0_15LRUCacheOptionsEE3$_0JPNS1_13LRUCacheShardEEET_St14__invoke_otherOT0_DpOT1_"(ptr noundef nonnull align 8 dereferenceable(32) %__f, ptr noundef nonnull align 8 dereferenceable(8) %__args) #0 {
entry:
  %__f.addr = alloca ptr, align 8
  %__args.addr = alloca ptr, align 8
  store ptr %__f, ptr %__f.addr, align 8
  store ptr %__args, ptr %__args.addr, align 8
  %0 = load ptr, ptr %__f.addr, align 8
  %1 = load ptr, ptr %__args.addr, align 8
  %2 = load ptr, ptr %1, align 8
  call void @"_ZZN7rocksdb9lru_cache8LRUCacheC1ERKNS_15LRUCacheOptionsEENK3$_0clEPNS0_13LRUCacheShardE"(ptr noundef nonnull align 8 dereferenceable(32) %0, ptr noundef %2)
  ret void
}

; Function Attrs: mustprogress nounwind uwtable
define internal noundef nonnull align 8 dereferenceable(8) ptr @"_ZNKSt9_Any_data9_M_accessIPZN7rocksdb9lru_cache8LRUCacheC1ERKNS1_15LRUCacheOptionsEE3$_0EERKT_v"(ptr noundef nonnull align 8 dereferenceable(16) %this) #4 align 2 {
entry:
  %this.addr = alloca ptr, align 8
  store ptr %this, ptr %this.addr, align 8
  %this1 = load ptr, ptr %this.addr, align 8
  %call = call noundef ptr @_ZNKSt9_Any_data9_M_accessEv(ptr noundef nonnull align 8 dereferenceable(16) %this1) #15
  ret ptr %call
}

; Function Attrs: mustprogress uwtable
define internal void @"_ZSt10__invoke_rIvRZN7rocksdb9lru_cache8LRUCacheC1ERKNS0_15LRUCacheOptionsEE3$_0JPNS1_13LRUCacheShardEEENSt9enable_ifIX16is_invocable_r_vIT_T0_DpT1_EESB_E4typeEOSC_DpOSD_"(ptr noundef nonnull align 8 dereferenceable(32) %__fn, ptr noundef nonnull align 8 dereferenceable(8) %__args) #0 {
entry:
  %__fn.addr = alloca ptr, align 8
  %__args.addr = alloca ptr, align 8
  store ptr %__fn, ptr %__fn.addr, align 8
  store ptr %__args, ptr %__args.addr, align 8
  %0 = load ptr, ptr %__fn.addr, align 8
  %1 = load ptr, ptr %__args.addr, align 8
  call void @"_ZSt13__invoke_implIvRZN7rocksdb9lru_cache8LRUCacheC1ERKNS0_15LRUCacheOptionsEE3$_0JPNS1_13LRUCacheShardEEET_St14__invoke_otherOT0_DpOT1_"(ptr noundef nonnull align 8 dereferenceable(32) %0, ptr noundef nonnull align 8 dereferenceable(8) %1)
  ret void
}

; Function Attrs: mustprogress nounwind uwtable
define internal noundef ptr @"_ZNSt14_Function_base13_Base_managerIZN7rocksdb9lru_cache8LRUCacheC1ERKNS1_15LRUCacheOptionsEE3$_0E14_M_get_pointerERKSt9_Any_data"(ptr noundef nonnull align 8 dereferenceable(16) %__source) #4 align 2 {
entry:
  %__source.addr = alloca ptr, align 8
  store ptr %__source, ptr %__source.addr, align 8
  %0 = load ptr, ptr %__source.addr, align 8
  %call = call noundef nonnull align 8 dereferenceable(8) ptr @"_ZNKSt9_Any_data9_M_accessIPZN7rocksdb9lru_cache8LRUCacheC1ERKNS1_15LRUCacheOptionsEE3$_0EERKT_v"(ptr noundef nonnull align 8 dereferenceable(16) %0) #15
  %1 = load ptr, ptr %call, align 8
  ret ptr %1
}

; Function Attrs: mustprogress uwtable
define internal void @"_ZNSt17_Function_handlerIFvPN7rocksdb9lru_cache13LRUCacheShardEEZNS1_8LRUCacheC1ERKNS0_15LRUCacheOptionsEE3$_0E9_M_invokeERKSt9_Any_dataOS3_"(ptr noundef nonnull align 8 dereferenceable(16) %__functor, ptr noundef nonnull align 8 dereferenceable(8) %__args) #0 align 2 {
entry:
  %__functor.addr = alloca ptr, align 8
  %__args.addr = alloca ptr, align 8
  store ptr %__functor, ptr %__functor.addr, align 8
  store ptr %__args, ptr %__args.addr, align 8
  %0 = load ptr, ptr %__functor.addr, align 8
  %call = call noundef ptr @"_ZNSt14_Function_base13_Base_managerIZN7rocksdb9lru_cache8LRUCacheC1ERKNS1_15LRUCacheOptionsEE3$_0E14_M_get_pointerERKSt9_Any_data"(ptr noundef nonnull align 8 dereferenceable(16) %0) #15
  %1 = load ptr, ptr %__args.addr, align 8
  call void @"_ZSt10__invoke_rIvRZN7rocksdb9lru_cache8LRUCacheC1ERKNS0_15LRUCacheOptionsEE3$_0JPNS1_13LRUCacheShardEEENSt9enable_ifIX16is_invocable_r_vIT_T0_DpT1_EESB_E4typeEOSC_DpOSD_"(ptr noundef nonnull align 8 dereferenceable(32) %call, ptr noundef nonnull align 8 dereferenceable(8) %1)
  ret void
}