; Function Attrs: mustprogress uwtable
define internal void @"_ZNSt17_Function_handlerIFvPN7rocksdb9lru_cache13LRUCacheShardEEZNS1_8LRUCacheC1ERKNS0_15LRUCacheOptionsEE3$_0E9_M_invokeERKSt9_Any_dataOS3_"(ptr nocapture noundef nonnull readonly align 8 dereferenceable(16) %__functor, ptr nocapture noundef nonnull readonly align 8 dereferenceable(8) %__args) #0 align 2 {
entry:
  %__functor.val = load ptr, ptr %__functor, align 8
  %__args.val = load ptr, ptr %__args, align 8
  %0 = getelementptr inbounds i8, ptr %__functor.val, i64 24
  %1 = load ptr, ptr %0, align 8
  %2 = load ptr, ptr %__functor.val, align 8
  %3 = load i64, ptr %2, align 8
  %4 = getelementptr inbounds i8, ptr %__functor.val, i64 8
  %5 = load ptr, ptr %4, align 8
  %strict_capacity_limit.i.i.i = getelementptr inbounds i8, ptr %5, i64 20
  %6 = load i8, ptr %strict_capacity_limit.i.i.i, align 4
  %7 = and i8 %6, 1
  %tobool.i.i.i = icmp ne i8 %7, 0
  %high_pri_pool_ratio.i.i.i = getelementptr inbounds i8, ptr %5, i64 72
  %8 = load double, ptr %high_pri_pool_ratio.i.i.i, align 8
  %low_pri_pool_ratio.i.i.i = getelementptr inbounds i8, ptr %5, i64 80
  %9 = load double, ptr %low_pri_pool_ratio.i.i.i, align 8
  %use_adaptive_mutex.i.i.i = getelementptr inbounds i8, ptr %5, i64 88
  %10 = load i8, ptr %use_adaptive_mutex.i.i.i, align 8
  %11 = and i8 %10, 1
  %tobool2.i.i.i = icmp ne i8 %11, 0
  %metadata_charge_policy.i.i.i = getelementptr inbounds i8, ptr %5, i64 40
  %12 = load i32, ptr %metadata_charge_policy.i.i.i, align 8
  %num_shard_bits.i.i.i = getelementptr inbounds i8, ptr %5, i64 16
  %13 = load i32, ptr %num_shard_bits.i.i.i, align 8
  %sub.i.i.i = sub nsw i32 32, %13
  %14 = getelementptr inbounds i8, ptr %__functor.val, i64 16
  %15 = load ptr, ptr %14, align 8
  %16 = load ptr, ptr %15, align 8
  %eviction_callback_.i.i.i = getelementptr inbounds i8, ptr %1, i64 24
  tail call void @_ZN7rocksdb9lru_cache13LRUCacheShardC1EmbddbNS_25CacheMetadataChargePolicyEiPNS_15MemoryAllocatorEPKSt8functionIFbRKNS_5SliceEPNS_5Cache6HandleEbEE(ptr noundef nonnull align 64 dereferenceable(256) %__args.val, i64 noundef %3, i1 noundef zeroext %tobool.i.i.i, double noundef %8, double noundef %9, i1 noundef zeroext %tobool2.i.i.i, i32 noundef %12, i32 noundef %sub.i.i.i, ptr noundef %16, ptr noundef nonnull %eviction_callback_.i.i.i)
  ret void
}